target datalayout = "e-m:e-p270:32:32-p271:32:32-p272:64:64-i64:64-i128:128-f80:128-n8:16:32:64-S128"
target triple = "x86_64-pc-linux-gnu"

%struct.FunctionCallInfoBaseData = type { ptr, ptr, ptr, i32, i8, i16, [0 x %struct.NullableDatum] }
%struct.NullableDatum = type { i64, i8 }
%struct.FmgrInfo = type { ptr, i32, i16, i8, i8, i8, ptr, ptr, ptr }
%struct.TypeCacheEntry = type { i32, i32, i16, i8, i8, i8, i8, i32, i32, i32, i32, i32, i32, i32, i32, i32, i32, i32, i32, i32, i32, %struct.FmgrInfo, %struct.FmgrInfo, %struct.FmgrInfo, %struct.FmgrInfo, ptr, i64, ptr, i32, i32, %struct.FmgrInfo, %struct.FmgrInfo, %struct.FmgrInfo, ptr, i32, i32, ptr, i32, ptr, ptr }
%struct.ArrayType = type { i32, i32, i32, i32 }

@.str.2 = private unnamed_addr constant [18 x i8] c"multirangetypes.c\00", align 1
@.str.9 = private unnamed_addr constant [33 x i8] c"type %u is not a multirange type\00", align 1
@__func__.multirange_get_typcache = private unnamed_addr constant [24 x i8] c"multirange_get_typcache\00", align 1
@.str.10 = private unnamed_addr constant [46 x i8] c"multirange values cannot contain null members\00", align 1
@__func__.multirange_constructor2 = private unnamed_addr constant [24 x i8] c"multirange_constructor2\00", align 1
@.str.11 = private unnamed_addr constant [63 x i8] c"multiranges cannot be constructed from multidimensional arrays\00", align 1
@.str.12 = private unnamed_addr constant [40 x i8] c"type %u does not match constructor type\00", align 1

; Function Attrs: inlinehint nounwind uwtable
define internal i64 @PointerGetDatum(ptr noundef %0) #2 {
  %2 = alloca ptr, align 8
  store ptr %0, ptr %2, align 8
  %3 = load ptr, ptr %2, align 8
  %4 = ptrtoint ptr %3 to i64
  ret i64 %4
}

; Function Attrs: inlinehint nounwind uwtable
define internal ptr @DatumGetRangeTypeP(i64 noundef %0) #2 {
  %2 = alloca i64, align 8
  store i64 %0, ptr %2, align 8
  %3 = load i64, ptr %2, align 8
  %4 = call ptr @DatumGetPointer(i64 noundef %3)
  %5 = call ptr @pg_detoast_datum(ptr noundef %4)
  ret ptr %5
}

; Function Attrs: inlinehint nounwind uwtable
define internal ptr @DatumGetPointer(i64 noundef %0) #2 {
  %2 = alloca i64, align 8
  store i64 %0, ptr %2, align 8
  %3 = load i64, ptr %2, align 8
  %4 = inttoptr i64 %3 to ptr
  ret ptr %4
}

; Function Attrs: inlinehint nounwind uwtable
define internal i64 @MultirangeTypePGetDatum(ptr noundef %0) #2 {
  %2 = alloca ptr, align 8
  store ptr %0, ptr %2, align 8
  %3 = load ptr, ptr %2, align 8
  %4 = call i64 @PointerGetDatum(ptr noundef %3)
  ret i64 %4
}

; Function Attrs: nounwind uwtable
define dso_local ptr @multirange_get_typcache(ptr noundef %0, i32 noundef %1) #0 {
  %3 = alloca ptr, align 8
  %4 = alloca i32, align 4
  %5 = alloca ptr, align 8
  store ptr %0, ptr %3, align 8
  store i32 %1, ptr %4, align 4
  call void @llvm.lifetime.start.p0(i64 8, ptr %5) #9
  %6 = load ptr, ptr %3, align 8
  %7 = getelementptr inbounds nuw %struct.FunctionCallInfoBaseData, ptr %6, i32 0, i32 0
  %8 = load ptr, ptr %7, align 8
  %9 = getelementptr inbounds nuw %struct.FmgrInfo, ptr %8, i32 0, i32 6
  %10 = load ptr, ptr %9, align 8
  store ptr %10, ptr %5, align 8
  %11 = load ptr, ptr %5, align 8
  %12 = icmp eq ptr %11, null
  br i1 %12, label %19, label %13

13:                                               ; preds = %2
  %14 = load ptr, ptr %5, align 8
  %15 = getelementptr inbounds nuw %struct.TypeCacheEntry, ptr %14, i32 0, i32 0
  %16 = load i32, ptr %15, align 8
  %17 = load i32, ptr %4, align 4
  %18 = icmp ne i32 %16, %17
  br i1 %18, label %19, label %44

19:                                               ; preds = %13, %2
  %20 = load i32, ptr %4, align 4
  %21 = call ptr @lookup_type_cache(i32 noundef %20, i32 noundef 65536)
  store ptr %21, ptr %5, align 8
  %22 = load ptr, ptr %5, align 8
  %23 = getelementptr inbounds nuw %struct.TypeCacheEntry, ptr %22, i32 0, i32 33
  %24 = load ptr, ptr %23, align 8
  %25 = icmp eq ptr %24, null
  br i1 %25, label %26, label %38

26:                                               ; preds = %19
  br label %27

27:                                               ; preds = %26
  br i1 true, label %28, label %30

28:                                               ; preds = %27
  %29 = call zeroext i1 @errstart_cold(i32 noundef 21, ptr noundef null) #11
  br i1 %29, label %32, label %35

30:                                               ; preds = %27
  %31 = call zeroext i1 @errstart(i32 noundef 21, ptr noundef null)
  br i1 %31, label %32, label %35

32:                                               ; preds = %30, %28
  %33 = load i32, ptr %4, align 4
  %34 = call i32 (ptr, ...) @errmsg_internal(ptr noundef @.str.9, i32 noundef %33)
  call void @errfinish(ptr noundef @.str.2, i32 noundef 557, ptr noundef @__func__.multirange_get_typcache)
  br label %35

35:                                               ; preds = %32, %30, %28
  unreachable

36:                                               ; No predecessors!
  br label %37

37:                                               ; preds = %36
  br label %38

38:                                               ; preds = %37, %19
  %39 = load ptr, ptr %5, align 8
  %40 = load ptr, ptr %3, align 8
  %41 = getelementptr inbounds nuw %struct.FunctionCallInfoBaseData, ptr %40, i32 0, i32 0
  %42 = load ptr, ptr %41, align 8
  %43 = getelementptr inbounds nuw %struct.FmgrInfo, ptr %42, i32 0, i32 6
  store ptr %39, ptr %43, align 8
  br label %44

44:                                               ; preds = %38, %13
  %45 = load ptr, ptr %5, align 8
  call void @llvm.lifetime.end.p0(i64 8, ptr %5) #9
  ret ptr %45
}

; Function Attrs: nounwind uwtable
define dso_local i64 @multirange_constructor2(ptr noundef %0) #0 {
  %2 = alloca i64, align 8
  %3 = alloca ptr, align 8
  %4 = alloca i32, align 4
  %5 = alloca i32, align 4
  %6 = alloca ptr, align 8
  %7 = alloca ptr, align 8
  %8 = alloca ptr, align 8
  %9 = alloca i32, align 4
  %10 = alloca ptr, align 8
  %11 = alloca ptr, align 8
  %12 = alloca ptr, align 8
  %13 = alloca i32, align 4
  %14 = alloca i32, align 4
  %15 = alloca i32, align 4
  store ptr %0, ptr %3, align 8
  call void @llvm.lifetime.start.p0(i64 4, ptr %4) #9
  %16 = load ptr, ptr %3, align 8
  %17 = getelementptr inbounds nuw %struct.FunctionCallInfoBaseData, ptr %16, i32 0, i32 0
  %18 = load ptr, ptr %17, align 8
  %19 = call i32 @get_fn_expr_rettype(ptr noundef %18)
  store i32 %19, ptr %4, align 4
  call void @llvm.lifetime.start.p0(i64 4, ptr %5) #9
  call void @llvm.lifetime.start.p0(i64 8, ptr %6) #9
  call void @llvm.lifetime.start.p0(i64 8, ptr %7) #9
  call void @llvm.lifetime.start.p0(i64 8, ptr %8) #9
  call void @llvm.lifetime.start.p0(i64 4, ptr %9) #9
  call void @llvm.lifetime.start.p0(i64 8, ptr %10) #9
  call void @llvm.lifetime.start.p0(i64 8, ptr %11) #9
  call void @llvm.lifetime.start.p0(i64 8, ptr %12) #9
  call void @llvm.lifetime.start.p0(i64 4, ptr %13) #9
  call void @llvm.lifetime.start.p0(i64 4, ptr %14) #9
  %20 = load ptr, ptr %3, align 8
  %21 = load i32, ptr %4, align 4
  %22 = call ptr @multirange_get_typcache(ptr noundef %20, i32 noundef %21)
  store ptr %22, ptr %6, align 8
  %23 = load ptr, ptr %6, align 8
  %24 = getelementptr inbounds nuw %struct.TypeCacheEntry, ptr %23, i32 0, i32 33
  %25 = load ptr, ptr %24, align 8
  store ptr %25, ptr %7, align 8
  %26 = load ptr, ptr %3, align 8
  %27 = getelementptr inbounds nuw %struct.FunctionCallInfoBaseData, ptr %26, i32 0, i32 5
  %28 = load i16, ptr %27, align 2
  %29 = sext i16 %28 to i32
  %30 = icmp eq i32 %29, 0
  br i1 %30, label %31, label %36

31:                                               ; preds = %1
  %32 = load i32, ptr %4, align 4
  %33 = load ptr, ptr %7, align 8
  %34 = call ptr @make_multirange(i32 noundef %32, ptr noundef %33, i32 noundef 0, ptr noundef null)
  %35 = call i64 @MultirangeTypePGetDatum(ptr noundef %34)
  store i64 %35, ptr %2, align 8
  store i32 1, ptr %15, align 4
  br label %167

36:                                               ; preds = %1
  %37 = load ptr, ptr %3, align 8
  %38 = getelementptr inbounds nuw %struct.FunctionCallInfoBaseData, ptr %37, i32 0, i32 6
  %39 = getelementptr inbounds [0 x %struct.NullableDatum], ptr %38, i64 0, i64 0
  %40 = getelementptr inbounds nuw %struct.NullableDatum, ptr %39, i32 0, i32 1
  %41 = load i8, ptr %40, align 8, !range !16, !noundef !17
  %42 = trunc i8 %41 to i1
  br i1 %42, label %43, label %54

43:                                               ; preds = %36
  br label %44

44:                                               ; preds = %43
  br i1 true, label %45, label %47

45:                                               ; preds = %44
  %46 = call zeroext i1 @errstart_cold(i32 noundef 21, ptr noundef null) #11
  br i1 %46, label %49, label %51

47:                                               ; preds = %44
  %48 = call zeroext i1 @errstart(i32 noundef 21, ptr noundef null)
  br i1 %48, label %49, label %51

49:                                               ; preds = %47, %45
  %50 = call i32 (ptr, ...) @errmsg_internal(ptr noundef @.str.10)
  call void @errfinish(ptr noundef @.str.2, i32 noundef 973, ptr noundef @__func__.multirange_constructor2)
  br label %51

51:                                               ; preds = %49, %47, %45
  unreachable

52:                                               ; No predecessors!
  br label %53

53:                                               ; preds = %52
  br label %54

54:                                               ; preds = %53, %36
  %55 = load ptr, ptr %3, align 8
  %56 = getelementptr inbounds nuw %struct.FunctionCallInfoBaseData, ptr %55, i32 0, i32 6
  %57 = getelementptr inbounds [0 x %struct.NullableDatum], ptr %56, i64 0, i64 0
  %58 = getelementptr inbounds nuw %struct.NullableDatum, ptr %57, i32 0, i32 0
  %59 = load i64, ptr %58, align 8
  %60 = call ptr @DatumGetPointer(i64 noundef %59)
  %61 = call ptr @pg_detoast_datum(ptr noundef %60)
  store ptr %61, ptr %8, align 8
  %62 = load ptr, ptr %8, align 8
  %63 = getelementptr inbounds nuw %struct.ArrayType, ptr %62, i32 0, i32 1
  %64 = load i32, ptr %63, align 4
  store i32 %64, ptr %13, align 4
  %65 = load i32, ptr %13, align 4
  %66 = icmp sgt i32 %65, 1
  br i1 %66, label %67, label %79

67:                                               ; preds = %54
  br label %68

68:                                               ; preds = %67
  br i1 true, label %69, label %71

69:                                               ; preds = %68
  %70 = call zeroext i1 @errstart_cold(i32 noundef 21, ptr noundef null) #11
  br i1 %70, label %73, label %76

71:                                               ; preds = %68
  %72 = call zeroext i1 @errstart(i32 noundef 21, ptr noundef null)
  br i1 %72, label %73, label %76

73:                                               ; preds = %71, %69
  %74 = call i32 @errcode(i32 noundef 66)
  %75 = call i32 (ptr, ...) @errmsg(ptr noundef @.str.11)
  call void @errfinish(ptr noundef @.str.2, i32 noundef 981, ptr noundef @__func__.multirange_constructor2)
  br label %76

76:                                               ; preds = %73, %71, %69
  unreachable

77:                                               ; No predecessors!
  br label %78

78:                                               ; preds = %77
  br label %79

79:                                               ; preds = %78, %54
  %80 = load ptr, ptr %8, align 8
  %81 = getelementptr inbounds nuw %struct.ArrayType, ptr %80, i32 0, i32 3
  %82 = load i32, ptr %81, align 4
  store i32 %82, ptr %5, align 4
  %83 = load i32, ptr %5, align 4
  %84 = load ptr, ptr %7, align 8
  %85 = getelementptr inbounds nuw %struct.TypeCacheEntry, ptr %84, i32 0, i32 0
  %86 = load i32, ptr %85, align 8
  %87 = icmp ne i32 %83, %86
  br i1 %87, label %88, label %100

88:                                               ; preds = %79
  br label %89

89:                                               ; preds = %88
  br i1 true, label %90, label %92

90:                                               ; preds = %89
  %91 = call zeroext i1 @errstart_cold(i32 noundef 21, ptr noundef null) #11
  br i1 %91, label %94, label %97

92:                                               ; preds = %89
  %93 = call zeroext i1 @errstart(i32 noundef 21, ptr noundef null)
  br i1 %93, label %94, label %97

94:                                               ; preds = %92, %90
  %95 = load i32, ptr %5, align 4
  %96 = call i32 (ptr, ...) @errmsg_internal(ptr noundef @.str.12, i32 noundef %95)
  call void @errfinish(ptr noundef @.str.2, i32 noundef 985, ptr noundef @__func__.multirange_constructor2)
  br label %97

97:                                               ; preds = %94, %92, %90
  unreachable

98:                                               ; No predecessors!
  br label %99

99:                                               ; preds = %98
  br label %100

100:                                              ; preds = %99, %79
  %101 = load i32, ptr %13, align 4
  %102 = icmp eq i32 %101, 0
  br i1 %102, label %103, label %104

103:                                              ; preds = %100
  store i32 0, ptr %9, align 4
  store ptr null, ptr %12, align 8
  br label %160

104:                                              ; preds = %100
  %105 = load ptr, ptr %8, align 8
  %106 = load i32, ptr %5, align 4
  %107 = load ptr, ptr %7, align 8
  %108 = getelementptr inbounds nuw %struct.TypeCacheEntry, ptr %107, i32 0, i32 2
  %109 = load i16, ptr %108, align 8
  %110 = sext i16 %109 to i32
  %111 = load ptr, ptr %7, align 8
  %112 = getelementptr inbounds nuw %struct.TypeCacheEntry, ptr %111, i32 0, i32 3
  %113 = load i8, ptr %112, align 2, !range !16, !noundef !17
  %114 = trunc i8 %113 to i1
  %115 = load ptr, ptr %7, align 8
  %116 = getelementptr inbounds nuw %struct.TypeCacheEntry, ptr %115, i32 0, i32 4
  %117 = load i8, ptr %116, align 1
  call void @deconstruct_array(ptr noundef %105, i32 noundef %106, i32 noundef %110, i1 noundef zeroext %114, i8 noundef signext %117, ptr noundef %10, ptr noundef %11, ptr noundef %9)
  %118 = load i32, ptr %9, align 4
  %119 = sext i32 %118 to i64
  %120 = mul i64 %119, 8
  %121 = call ptr @palloc0(i64 noundef %120)
  store ptr %121, ptr %12, align 8
  store i32 0, ptr %14, align 4
  br label %122

122:                                              ; preds = %156, %104
  %123 = load i32, ptr %14, align 4
  %124 = load i32, ptr %9, align 4
  %125 = icmp slt i32 %123, %124
  br i1 %125, label %126, label %159

126:                                              ; preds = %122
  %127 = load ptr, ptr %11, align 8
  %128 = load i32, ptr %14, align 4
  %129 = sext i32 %128 to i64
  %130 = getelementptr inbounds i8, ptr %127, i64 %129
  %131 = load i8, ptr %130, align 1, !range !16, !noundef !17
  %132 = trunc i8 %131 to i1
  br i1 %132, label %133, label %145

133:                                              ; preds = %126
  br label %134

134:                                              ; preds = %133
  br i1 true, label %135, label %137

135:                                              ; preds = %134
  %136 = call zeroext i1 @errstart_cold(i32 noundef 21, ptr noundef null) #11
  br i1 %136, label %139, label %142

137:                                              ; preds = %134
  %138 = call zeroext i1 @errstart(i32 noundef 21, ptr noundef null)
  br i1 %138, label %139, label %142

139:                                              ; preds = %137, %135
  %140 = call i32 @errcode(i32 noundef 67108994)
  %141 = call i32 (ptr, ...) @errmsg(ptr noundef @.str.10)
  call void @errfinish(ptr noundef @.str.2, i32 noundef 1007, ptr noundef @__func__.multirange_constructor2)
  br label %142

142:                                              ; preds = %139, %137, %135
  unreachable

143:                                              ; No predecessors!
  br label %144

144:                                              ; preds = %143
  br label %145

145:                                              ; preds = %144, %126
  %146 = load ptr, ptr %10, align 8
  %147 = load i32, ptr %14, align 4
  %148 = sext i32 %147 to i64
  %149 = getelementptr inbounds i64, ptr %146, i64 %148
  %150 = load i64, ptr %149, align 8
  %151 = call ptr @DatumGetRangeTypeP(i64 noundef %150)
  %152 = load ptr, ptr %12, align 8
  %153 = load i32, ptr %14, align 4
  %154 = sext i32 %153 to i64
  %155 = getelementptr inbounds ptr, ptr %152, i64 %154
  store ptr %151, ptr %155, align 8
  br label %156

156:                                              ; preds = %145
  %157 = load i32, ptr %14, align 4
  %158 = add i32 %157, 1
  store i32 %158, ptr %14, align 4
  br label %122, !llvm.loop !18

159:                                              ; preds = %122
  br label %160

160:                                              ; preds = %159, %103
  %161 = load i32, ptr %4, align 4
  %162 = load ptr, ptr %7, align 8
  %163 = load i32, ptr %9, align 4
  %164 = load ptr, ptr %12, align 8
  %165 = call ptr @make_multirange(i32 noundef %161, ptr noundef %162, i32 noundef %163, ptr noundef %164)
  %166 = call i64 @MultirangeTypePGetDatum(ptr noundef %165)
  store i64 %166, ptr %2, align 8
  store i32 1, ptr %15, align 4
  br label %167

167:                                              ; preds = %160, %31
  call void @llvm.lifetime.end.p0(i64 4, ptr %14) #9
  call void @llvm.lifetime.end.p0(i64 4, ptr %13) #9
  call void @llvm.lifetime.end.p0(i64 8, ptr %12) #9
  call void @llvm.lifetime.end.p0(i64 8, ptr %11) #9
  call void @llvm.lifetime.end.p0(i64 8, ptr %10) #9
  call void @llvm.lifetime.end.p0(i64 4, ptr %9) #9
  call void @llvm.lifetime.end.p0(i64 8, ptr %8) #9
  call void @llvm.lifetime.end.p0(i64 8, ptr %7) #9
  call void @llvm.lifetime.end.p0(i64 8, ptr %6) #9
  call void @llvm.lifetime.end.p0(i64 4, ptr %5) #9
  call void @llvm.lifetime.end.p0(i64 4, ptr %4) #9
  %168 = load i64, ptr %2, align 8
  ret i64 %168
}