; Function Attrs: nounwind uwtable
define dso_local noundef i64 @multirange_constructor2(ptr noundef readonly captures(none) %0) local_unnamed_addr #0 {
  %2 = alloca i32, align 4
  %3 = alloca ptr, align 8
  %4 = alloca ptr, align 8
  %5 = load ptr, ptr %0, align 8
  %6 = tail call i32 @get_fn_expr_rettype(ptr noundef %5) #11
  call void @llvm.lifetime.start.p0(i64 4, ptr nonnull %2) #11
  call void @llvm.lifetime.start.p0(i64 8, ptr nonnull %3) #11
  call void @llvm.lifetime.start.p0(i64 8, ptr nonnull %4) #11
  %7 = load ptr, ptr %0, align 8
  %8 = getelementptr inbounds nuw i8, ptr %7, i64 24
  %9 = load ptr, ptr %8, align 8
  %10 = icmp eq ptr %9, null
  br i1 %10, label %13, label %11

11:                                               ; preds = %1
  %12 = load i32, ptr %9, align 8
  %.not.i = icmp eq i32 %12, %6
  br i1 %.not.i, label %multirange_get_typcache.exit, label %13

13:                                               ; preds = %11, %1
  %14 = tail call ptr @lookup_type_cache(i32 noundef %6, i32 noundef 65536) #11
  %15 = getelementptr inbounds nuw i8, ptr %14, i64 440
  %16 = load ptr, ptr %15, align 8
  %17 = icmp eq ptr %16, null
  br i1 %17, label %18, label %21

18:                                               ; preds = %13
  %19 = tail call zeroext i1 @errstart_cold(i32 noundef 21, ptr noundef null) #13
  tail call void @llvm.assume(i1 %19)
  %20 = tail call i32 (ptr, ...) @errmsg_internal(ptr noundef nonnull @.str.9, i32 noundef %6) #11
  tail call void @errfinish(ptr noundef nonnull @.str.2, i32 noundef 557, ptr noundef nonnull @__func__.multirange_get_typcache) #11
  unreachable

21:                                               ; preds = %13
  %22 = load ptr, ptr %0, align 8
  %23 = getelementptr inbounds nuw i8, ptr %22, i64 24
  store ptr %14, ptr %23, align 8
  br label %multirange_get_typcache.exit

multirange_get_typcache.exit:                     ; preds = %11, %21
  %.0.i = phi ptr [ %14, %21 ], [ %9, %11 ]
  %24 = getelementptr inbounds nuw i8, ptr %.0.i, i64 440
  %25 = load ptr, ptr %24, align 8
  %26 = getelementptr inbounds nuw i8, ptr %0, i64 30
  %27 = load i16, ptr %26, align 2
  %28 = icmp eq i16 %27, 0
  br i1 %28, label %29, label %31

29:                                               ; preds = %multirange_get_typcache.exit
  %30 = tail call ptr @make_multirange(i32 noundef %6, ptr noundef %25, i32 noundef 0, ptr noundef null)
  br label %95

31:                                               ; preds = %multirange_get_typcache.exit
  %32 = getelementptr inbounds nuw i8, ptr %0, i64 40
  %33 = load i8, ptr %32, align 8, !range !22, !noundef !23
  %34 = trunc nuw i8 %33 to i1
  br i1 %34, label %35, label %38

35:                                               ; preds = %31
  %36 = tail call zeroext i1 @errstart_cold(i32 noundef 21, ptr noundef null) #13
  tail call void @llvm.assume(i1 %36)
  %37 = tail call i32 (ptr, ...) @errmsg_internal(ptr noundef nonnull @.str.10) #11
  tail call void @errfinish(ptr noundef nonnull @.str.2, i32 noundef 973, ptr noundef nonnull @__func__.multirange_constructor2) #11
  unreachable

38:                                               ; preds = %31
  %39 = getelementptr inbounds nuw i8, ptr %0, i64 32
  %40 = load i64, ptr %39, align 8
  %41 = inttoptr i64 %40 to ptr
  %42 = tail call ptr @pg_detoast_datum(ptr noundef %41) #11
  %43 = getelementptr inbounds nuw i8, ptr %42, i64 4
  %44 = load i32, ptr %43, align 4
  %45 = icmp sgt i32 %44, 1
  br i1 %45, label %46, label %50

46:                                               ; preds = %38
  %47 = tail call zeroext i1 @errstart_cold(i32 noundef 21, ptr noundef null) #13
  tail call void @llvm.assume(i1 %47)
  %48 = tail call i32 @errcode(i32 noundef 66) #11
  %49 = tail call i32 (ptr, ...) @errmsg(ptr noundef nonnull @.str.11) #11
  tail call void @errfinish(ptr noundef nonnull @.str.2, i32 noundef 981, ptr noundef nonnull @__func__.multirange_constructor2) #11
  unreachable

50:                                               ; preds = %38
  %51 = getelementptr inbounds nuw i8, ptr %42, i64 12
  %52 = load i32, ptr %51, align 4
  %53 = load i32, ptr %25, align 8
  %.not = icmp eq i32 %52, %53
  br i1 %.not, label %57, label %54

54:                                               ; preds = %50
  %55 = tail call zeroext i1 @errstart_cold(i32 noundef 21, ptr noundef null) #13
  tail call void @llvm.assume(i1 %55)
  %56 = tail call i32 (ptr, ...) @errmsg_internal(ptr noundef nonnull @.str.12, i32 noundef %52) #11
  tail call void @errfinish(ptr noundef nonnull @.str.2, i32 noundef 985, ptr noundef nonnull @__func__.multirange_constructor2) #11
  unreachable

57:                                               ; preds = %50
  %58 = icmp eq i32 %44, 0
  br i1 %58, label %59, label %60

59:                                               ; preds = %57
  store i32 0, ptr %2, align 4
  br label %.loopexit

60:                                               ; preds = %57
  %61 = getelementptr inbounds nuw i8, ptr %25, i64 8
  %62 = load i16, ptr %61, align 8
  %63 = sext i16 %62 to i32
  %64 = getelementptr inbounds nuw i8, ptr %25, i64 10
  %65 = load i8, ptr %64, align 2, !range !22, !noundef !23
  %66 = trunc nuw i8 %65 to i1
  %67 = getelementptr inbounds nuw i8, ptr %25, i64 11
  %68 = load i8, ptr %67, align 1
  call void @deconstruct_array(ptr noundef nonnull %42, i32 noundef %52, i32 noundef %63, i1 noundef zeroext %66, i8 noundef signext %68, ptr noundef nonnull %3, ptr noundef nonnull %4, ptr noundef nonnull %2) #11
  %69 = load i32, ptr %2, align 4
  %70 = sext i32 %69 to i64
  %71 = shl nsw i64 %70, 3
  %72 = call ptr @palloc0(i64 noundef %71) #11
  %73 = load i32, ptr %2, align 4
  %74 = icmp sgt i32 %73, 0
  br i1 %74, label %.lr.ph, label %.loopexit

.lr.ph:                                           ; preds = %60, %83
  %indvars.iv = phi i64 [ %indvars.iv.next, %83 ], [ 0, %60 ]
  %75 = load ptr, ptr %4, align 8
  %76 = getelementptr inbounds nuw i8, ptr %75, i64 %indvars.iv
  %77 = load i8, ptr %76, align 1, !range !22, !noundef !23
  %78 = trunc nuw i8 %77 to i1
  br i1 %78, label %79, label %83

79:                                               ; preds = %.lr.ph
  %80 = call zeroext i1 @errstart_cold(i32 noundef 21, ptr noundef null) #13
  call void @llvm.assume(i1 %80)
  %81 = call i32 @errcode(i32 noundef 67108994) #11
  %82 = call i32 (ptr, ...) @errmsg(ptr noundef nonnull @.str.10) #11
  call void @errfinish(ptr noundef nonnull @.str.2, i32 noundef 1007, ptr noundef nonnull @__func__.multirange_constructor2) #11
  unreachable

83:                                               ; preds = %.lr.ph
  %84 = load ptr, ptr %3, align 8
  %85 = getelementptr inbounds nuw i64, ptr %84, i64 %indvars.iv
  %86 = load i64, ptr %85, align 8
  %87 = inttoptr i64 %86 to ptr
  %88 = call ptr @pg_detoast_datum(ptr noundef %87) #11
  %89 = getelementptr inbounds nuw ptr, ptr %72, i64 %indvars.iv
  store ptr %88, ptr %89, align 8
  %indvars.iv.next = add nuw nsw i64 %indvars.iv, 1
  %90 = load i32, ptr %2, align 4
  %91 = sext i32 %90 to i64
  %92 = icmp slt i64 %indvars.iv.next, %91
  br i1 %92, label %.lr.ph, label %.loopexit, !llvm.loop !24

.loopexit:                                        ; preds = %83, %60, %59
  %93 = phi i32 [ 0, %59 ], [ %73, %60 ], [ %90, %83 ]
  %.031 = phi ptr [ null, %59 ], [ %72, %60 ], [ %72, %83 ]
  %94 = call ptr @make_multirange(i32 noundef %6, ptr noundef nonnull %25, i32 noundef %93, ptr noundef %.031)
  br label %95

95:                                               ; preds = %.loopexit, %29
  %.030.in = phi ptr [ %30, %29 ], [ %94, %.loopexit ]
  %.030 = ptrtoint ptr %.030.in to i64
  call void @llvm.lifetime.end.p0(i64 8, ptr nonnull %4) #11
  call void @llvm.lifetime.end.p0(i64 8, ptr nonnull %3) #11
  call void @llvm.lifetime.end.p0(i64 4, ptr nonnull %2) #11
  ret i64 %.030
}